target datalayout = "e-m:e-p270:32:32-p271:32:32-p272:64:64-i64:64-i128:128-f80:128-n8:16:32:64-S128"
target triple = "x86_64-pc-linux-gnu"

; Function Attrs: nounwind uwtable
define dso_local ptr @next_line(ptr noundef %0, i32 noundef %1, ptr noundef %2) #0 {
  %4 = alloca ptr, align 8
  %5 = alloca ptr, align 8
  %6 = alloca i32, align 4
  %7 = alloca ptr, align 8
  %8 = alloca ptr, align 8
  %9 = alloca ptr, align 8
  %10 = alloca ptr, align 8
  %11 = alloca i32, align 4
  store ptr %0, ptr %5, align 8
  store i32 %1, ptr %6, align 4
  store ptr %2, ptr %7, align 8
  call void @llvm.lifetime.start.p0(i64 8, ptr %8) #6
  call void @llvm.lifetime.start.p0(i64 8, ptr %9) #6
  call void @llvm.lifetime.start.p0(i64 8, ptr %10) #6
  %12 = load ptr, ptr %7, align 8
  %13 = load ptr, ptr %12, align 8
  %14 = icmp ne ptr %13, null
  br i1 %14, label %18, label %15

15:                                               ; preds = %3
  %16 = load ptr, ptr %5, align 8
  %17 = load ptr, ptr %7, align 8
  store ptr %16, ptr %17, align 8
  br label %18

18:                                               ; preds = %15, %3
  %19 = load ptr, ptr %7, align 8
  %20 = load ptr, ptr %19, align 8
  %21 = load ptr, ptr %5, align 8
  %22 = ptrtoint ptr %20 to i64
  %23 = ptrtoint ptr %21 to i64
  %24 = sub i64 %22, %23
  %25 = load i32, ptr %6, align 4
  %26 = sext i32 %25 to i64
  %27 = icmp sge i64 %24, %26
  br i1 %27, label %28, label %29

28:                                               ; preds = %18
  store ptr null, ptr %4, align 8
  store i32 1, ptr %11, align 4
  br label %72

29:                                               ; preds = %18
  %30 = load ptr, ptr %7, align 8
  %31 = load ptr, ptr %30, align 8
  store ptr %31, ptr %9, align 8
  store ptr %31, ptr %10, align 8
  br label %32

32:                                               ; preds = %46, %29
  %33 = load ptr, ptr %10, align 8
  %34 = load i8, ptr %33, align 1
  %35 = sext i8 %34 to i32
  %36 = icmp ne i32 %35, 10
  br i1 %36, label %37, label %44

37:                                               ; preds = %32
  %38 = load ptr, ptr %10, align 8
  %39 = load ptr, ptr %5, align 8
  %40 = load i32, ptr %6, align 4
  %41 = sext i32 %40 to i64
  %42 = getelementptr inbounds i8, ptr %39, i64 %41
  %43 = icmp ult ptr %38, %42
  br label %44

44:                                               ; preds = %37, %32
  %45 = phi i1 [ false, %32 ], [ %43, %37 ]
  br i1 %45, label %46, label %49

46:                                               ; preds = %44
  %47 = load ptr, ptr %10, align 8
  %48 = getelementptr inbounds nuw i8, ptr %47, i32 1
  store ptr %48, ptr %10, align 8
  br label %32, !llvm.loop !18

49:                                               ; preds = %44
  %50 = load ptr, ptr %9, align 8
  %51 = load ptr, ptr %10, align 8
  %52 = load ptr, ptr %9, align 8
  %53 = ptrtoint ptr %51 to i64
  %54 = ptrtoint ptr %52 to i64
  %55 = sub i64 %53, %54
  %56 = call ptr @xstrndup(ptr noundef %50, i64 noundef %55)
  store ptr %56, ptr %8, align 8
  %57 = load ptr, ptr %10, align 8
  %58 = load ptr, ptr %5, align 8
  %59 = load i32, ptr %6, align 4
  %60 = sext i32 %59 to i64
  %61 = getelementptr inbounds i8, ptr %58, i64 %60
  %62 = icmp ult ptr %57, %61
  br i1 %62, label %63, label %66

63:                                               ; preds = %49
  %64 = load ptr, ptr %10, align 8
  %65 = getelementptr inbounds i8, ptr %64, i64 1
  br label %68

66:                                               ; preds = %49
  %67 = load ptr, ptr %10, align 8
  br label %68

68:                                               ; preds = %66, %63
  %69 = phi ptr [ %65, %63 ], [ %67, %66 ]
  %70 = load ptr, ptr %7, align 8
  store ptr %69, ptr %70, align 8
  %71 = load ptr, ptr %8, align 8
  store ptr %71, ptr %4, align 8
  store i32 1, ptr %11, align 4
  br label %72

72:                                               ; preds = %68, %28
  call void @llvm.lifetime.end.p0(i64 8, ptr %10) #6
  call void @llvm.lifetime.end.p0(i64 8, ptr %9) #6
  call void @llvm.lifetime.end.p0(i64 8, ptr %8) #6
  %73 = load ptr, ptr %4, align 8
  ret ptr %73
}