; Function Attrs: nounwind uwtable
define dso_local ptr @next_line(ptr noundef %0, i32 noundef %1, ptr noundef captures(none) %2) local_unnamed_addr #0 {
  %4 = load ptr, ptr %2, align 8
  %.not = icmp eq ptr %4, null
  br i1 %.not, label %5, label %6

5:                                                ; preds = %3
  store ptr %0, ptr %2, align 8
  br label %6

6:                                                ; preds = %5, %3
  %7 = phi ptr [ %0, %5 ], [ %4, %3 ]
  %8 = ptrtoint ptr %7 to i64
  %9 = ptrtoint ptr %0 to i64
  %10 = sub i64 %8, %9
  %11 = sext i32 %1 to i64
  %.not24 = icmp slt i64 %10, %11
  br i1 %.not24, label %.preheader, label %24

.preheader:                                       ; preds = %6
  %12 = getelementptr inbounds i8, ptr %0, i64 %11
  br label %13

13:                                               ; preds = %13, %.preheader
  %.0 = phi ptr [ %18, %13 ], [ %7, %.preheader ]
  %14 = load i8, ptr %.0, align 1
  %15 = icmp ne i8 %14, 10
  %16 = icmp ult ptr %.0, %12
  %17 = select i1 %15, i1 %16, i1 false
  %18 = getelementptr inbounds nuw i8, ptr %.0, i64 1
  br i1 %17, label %13, label %19, !llvm.loop !18

19:                                               ; preds = %13
  %20 = ptrtoint ptr %.0 to i64
  %21 = sub i64 %20, %8
  %22 = tail call ptr @xstrndup(ptr noundef %7, i64 noundef %21) #8
  %.idx = zext i1 %16 to i64
  %23 = getelementptr inbounds nuw i8, ptr %.0, i64 %.idx
  store ptr %23, ptr %2, align 8
  br label %24

24:                                               ; preds = %6, %19
  %.022 = phi ptr [ %22, %19 ], [ null, %6 ]
  ret ptr %.022
}